; Function Attrs: nounwind uwtable
define i64 @dt_datetime_now_to_gtimespan() local_unnamed_addr #0 {
  %1 = tail call ptr @g_date_time_new_now_local() #7
  %.not.i = icmp eq ptr %1, null
  br i1 %.not.i, label %_gdatetime_to_gtimespan.exit, label %2

2:                                                ; preds = %0
  %3 = load ptr, ptr getelementptr inbounds nuw (i8, ptr @darktable, i64 3336), align 8, !tbaa !48
  %4 = tail call i64 @g_date_time_difference(ptr noundef nonnull %1, ptr noundef %3) #7
  tail call void @g_date_time_unref(ptr noundef nonnull %1) #7
  br label %_gdatetime_to_gtimespan.exit

_gdatetime_to_gtimespan.exit:                     ; preds = %0, %2
  %.0.i = phi i64 [ %4, %2 ], [ 0, %0 ]
  ret i64 %.0.i
}